target datalayout = "e-m:e-p270:32:32-p271:32:32-p272:64:64-i64:64-i128:128-f80:128-n8:16:32:64-S128"
target triple = "x86_64-pc-linux-gnu"

%struct.x509_purpose_st = type { i32, i32, i32, ptr, ptr, ptr, ptr }

@xptable = internal global ptr null, align 8

; Function Attrs: nounwind uwtable
define hidden ptr @X509_PURPOSE_get0(i32 noundef %0) #0 {
  %2 = alloca ptr, align 8
  %3 = alloca i32, align 4
  store i32 %0, ptr %3, align 4, !tbaa !11
  %4 = load i32, ptr %3, align 4, !tbaa !11
  %5 = icmp slt i32 %4, 0
  br i1 %5, label %6, label %7

6:                                                ; preds = %1
  store ptr null, ptr %2, align 8
  br label %20

7:                                                ; preds = %1
  %8 = load i32, ptr %3, align 4, !tbaa !11
  %9 = icmp slt i32 %8, 9
  br i1 %9, label %10, label %14

10:                                               ; preds = %7
  %11 = load i32, ptr %3, align 4, !tbaa !11
  %12 = sext i32 %11 to i64
  %13 = getelementptr inbounds %struct.x509_purpose_st, ptr @xstandard, i64 %12
  store ptr %13, ptr %2, align 8
  br label %20

14:                                               ; preds = %7
  %15 = load ptr, ptr @xptable, align 8, !tbaa !74
  %16 = load i32, ptr %3, align 4, !tbaa !11
  %17 = sext i32 %16 to i64
  %18 = sub i64 %17, 9
  %19 = call ptr @sk_value(ptr noundef %15, i64 noundef %18)
  store ptr %19, ptr %2, align 8
  br label %20

20:                                               ; preds = %14, %10, %6
  %21 = load ptr, ptr %2, align 8
  ret ptr %21
}

; Function Attrs: nounwind uwtable
define hidden i32 @X509_PURPOSE_get_count() #0 {
  %1 = alloca i32, align 4
  %2 = load ptr, ptr @xptable, align 8, !tbaa !74
  %3 = icmp ne ptr %2, null
  br i1 %3, label %5, label %4

4:                                                ; preds = %0
  store i32 9, ptr %1, align 4
  br label %10

5:                                                ; preds = %0
  %6 = load ptr, ptr @xptable, align 8, !tbaa !74
  %7 = call i64 @sk_num(ptr noundef %6)
  %8 = add i64 %7, 9
  %9 = trunc i64 %8 to i32
  store i32 %9, ptr %1, align 4
  br label %10

10:                                               ; preds = %5, %4
  %11 = load i32, ptr %1, align 4
  ret i32 %11
}

; Function Attrs: nounwind uwtable
define hidden i32 @X509_PURPOSE_get_by_sname(ptr noundef %0) #0 {
  %2 = alloca i32, align 4
  %3 = alloca ptr, align 8
  %4 = alloca i32, align 4
  %5 = alloca ptr, align 8
  %6 = alloca i32, align 4
  store ptr %0, ptr %3, align 8, !tbaa !78
  call void @llvm.lifetime.start.p0(i64 4, ptr %4) #7
  call void @llvm.lifetime.start.p0(i64 8, ptr %5) #7
  store i32 0, ptr %4, align 4, !tbaa !11
  br label %7

7:                                                ; preds = %23, %1
  %8 = load i32, ptr %4, align 4, !tbaa !11
  %9 = call i32 @X509_PURPOSE_get_count()
  %10 = icmp slt i32 %8, %9
  br i1 %10, label %11, label %26

11:                                               ; preds = %7
  %12 = load i32, ptr %4, align 4, !tbaa !11
  %13 = call ptr @X509_PURPOSE_get0(i32 noundef %12)
  store ptr %13, ptr %5, align 8, !tbaa !28
  %14 = load ptr, ptr %5, align 8, !tbaa !28
  %15 = getelementptr inbounds nuw %struct.x509_purpose_st, ptr %14, i32 0, i32 5
  %16 = load ptr, ptr %15, align 8, !tbaa !79
  %17 = load ptr, ptr %3, align 8, !tbaa !78
  %18 = call i32 @strcmp(ptr noundef %16, ptr noundef %17) #8
  %19 = icmp ne i32 %18, 0
  br i1 %19, label %22, label %20

20:                                               ; preds = %11
  %21 = load i32, ptr %4, align 4, !tbaa !11
  store i32 %21, ptr %2, align 4
  store i32 1, ptr %6, align 4
  br label %27

22:                                               ; preds = %11
  br label %23

23:                                               ; preds = %22
  %24 = load i32, ptr %4, align 4, !tbaa !11
  %25 = add nsw i32 %24, 1
  store i32 %25, ptr %4, align 4, !tbaa !11
  br label %7, !llvm.loop !80

26:                                               ; preds = %7
  store i32 -1, ptr %2, align 4
  store i32 1, ptr %6, align 4
  br label %27

27:                                               ; preds = %26, %20
  call void @llvm.lifetime.end.p0(i64 8, ptr %5) #7
  call void @llvm.lifetime.end.p0(i64 4, ptr %4) #7
  %28 = load i32, ptr %2, align 4
  ret i32 %28
}