; Function Attrs: nounwind uwtable
define hidden i32 @X509_PURPOSE_get_by_sname(ptr noundef readonly captures(none) %0) local_unnamed_addr #0 {
  br label %2

2:                                                ; preds = %20, %1
  %indvars.iv = phi i64 [ %indvars.iv.next, %20 ], [ 0, %1 ]
  %3 = load ptr, ptr @xptable, align 8, !tbaa !27
  %.not.i = icmp eq ptr %3, null
  br i1 %.not.i, label %X509_PURPOSE_get_count.exit, label %4

4:                                                ; preds = %2
  %5 = tail call i64 @sk_num(ptr noundef nonnull %3) #10
  %6 = shl i64 %5, 32
  %sext = add i64 %6, 38654705664
  %7 = ashr exact i64 %sext, 32
  br label %X509_PURPOSE_get_count.exit

X509_PURPOSE_get_count.exit:                      ; preds = %2, %4
  %.0.i = phi i64 [ %7, %4 ], [ 9, %2 ]
  %8 = icmp slt i64 %indvars.iv, %.0.i
  br i1 %8, label %9, label %.split.loop.exit

9:                                                ; preds = %X509_PURPOSE_get_count.exit
  %10 = icmp samesign ult i64 %indvars.iv, 9
  br i1 %10, label %11, label %13

11:                                               ; preds = %9
  %12 = getelementptr inbounds nuw %struct.x509_purpose_st, ptr @xstandard, i64 %indvars.iv
  br label %X509_PURPOSE_get0.exit

13:                                               ; preds = %9
  %14 = load ptr, ptr @xptable, align 8, !tbaa !27
  %15 = add nsw i64 %indvars.iv, -9
  %16 = tail call ptr @sk_value(ptr noundef %14, i64 noundef %15) #10
  br label %X509_PURPOSE_get0.exit

X509_PURPOSE_get0.exit:                           ; preds = %11, %13
  %.0.i7 = phi ptr [ %12, %11 ], [ %16, %13 ]
  %17 = getelementptr inbounds nuw i8, ptr %.0.i7, i64 32
  %18 = load ptr, ptr %17, align 8, !tbaa !77
  %19 = tail call i32 @strcmp(ptr noundef nonnull dereferenceable(1) %18, ptr noundef nonnull dereferenceable(1) %0) #11
  %.not = icmp eq i32 %19, 0
  br i1 %.not, label %.split.loop.exit9, label %20

20:                                               ; preds = %X509_PURPOSE_get0.exit
  %indvars.iv.next = add nuw nsw i64 %indvars.iv, 1
  br label %2, !llvm.loop !78

.split.loop.exit9:                                ; preds = %X509_PURPOSE_get0.exit
  %21 = trunc nuw nsw i64 %indvars.iv to i32
  br label %.split.loop.exit

.split.loop.exit:                                 ; preds = %X509_PURPOSE_get_count.exit, %.split.loop.exit9
  %.0 = phi i32 [ %21, %.split.loop.exit9 ], [ -1, %X509_PURPOSE_get_count.exit ]
  ret i32 %.0
}